target datalayout = "e-m:e-p270:32:32-p271:32:32-p272:64:64-i64:64-i128:128-f80:128-n8:16:32:64-S128"
target triple = "x86_64-pc-linux-gnu"

@bsslap_rrlp_handle = internal global ptr null, align 8

; Function Attrs: null_pointer_is_valid sspstrong uwtable
define internal zeroext i16 @de_rrlp_ie(ptr noundef %0, ptr noundef %1, ptr noundef %2, i32 noundef %3, i32 noundef %4, ptr noundef %5, i32 noundef %6) #1 {
  %8 = alloca ptr, align 8
  %9 = alloca ptr, align 8
  %10 = alloca ptr, align 8
  %11 = alloca i32, align 4
  %12 = alloca i32, align 4
  %13 = alloca ptr, align 8
  %14 = alloca i32, align 4
  %15 = alloca i32, align 4
  %16 = alloca ptr, align 8
  %17 = alloca i16, align 2
  store ptr %0, ptr %8, align 8
  store ptr %1, ptr %9, align 8
  store ptr %2, ptr %10, align 8
  store i32 %3, ptr %11, align 4
  store i32 %4, ptr %12, align 4
  store ptr %5, ptr %13, align 8
  store i32 %6, ptr %14, align 4
  call void @llvm.lifetime.start.p0(i64 4, ptr %15) #3
  call void @llvm.lifetime.start.p0(i64 8, ptr %16) #3
  call void @llvm.lifetime.start.p0(i64 2, ptr %17) #3
  %18 = load ptr, ptr %8, align 8
  %19 = load i32, ptr %11, align 4
  %20 = call zeroext i16 @tvb_get_ntohs(ptr noundef %18, i32 noundef %19)
  store i16 %20, ptr %17, align 2
  %21 = load i32, ptr %11, align 4
  %22 = add i32 %21, 2
  store i32 %22, ptr %15, align 4
  %23 = load i16, ptr %17, align 2
  %24 = zext i16 %23 to i32
  %25 = icmp sgt i32 %24, 0
  br i1 %25, label %26, label %41

26:                                               ; preds = %7
  %27 = load ptr, ptr %8, align 8
  %28 = load i32, ptr %15, align 4
  %29 = load i16, ptr %17, align 2
  %30 = zext i16 %29 to i32
  %31 = call ptr @tvb_new_subset_length(ptr noundef %27, i32 noundef %28, i32 noundef %30)
  store ptr %31, ptr %16, align 8
  %32 = load ptr, ptr @bsslap_rrlp_handle, align 8
  %33 = icmp ne ptr %32, null
  br i1 %33, label %34, label %40

34:                                               ; preds = %26
  %35 = load ptr, ptr @bsslap_rrlp_handle, align 8
  %36 = load ptr, ptr %16, align 8
  %37 = load ptr, ptr %10, align 8
  %38 = load ptr, ptr %9, align 8
  %39 = call i32 @call_dissector(ptr noundef %35, ptr noundef %36, ptr noundef %37, ptr noundef %38)
  br label %40

40:                                               ; preds = %34, %26
  br label %41

41:                                               ; preds = %40, %7
  %42 = load i16, ptr %17, align 2
  %43 = zext i16 %42 to i32
  %44 = load i32, ptr %15, align 4
  %45 = add i32 %44, %43
  store i32 %45, ptr %15, align 4
  %46 = load i32, ptr %15, align 4
  %47 = load i32, ptr %11, align 4
  %48 = sub i32 %46, %47
  %49 = trunc i32 %48 to i16
  call void @llvm.lifetime.end.p0(i64 2, ptr %17) #3
  call void @llvm.lifetime.end.p0(i64 8, ptr %16) #3
  call void @llvm.lifetime.end.p0(i64 4, ptr %15) #3
  ret i16 %49
}