; Function Attrs: null_pointer_is_valid sspstrong uwtable
define internal zeroext i16 @de_rrlp_ie(ptr noundef %0, ptr noundef %1, ptr noundef %2, i32 noundef %3, i32 %4, ptr readnone captures(none) %5, i32 %6) #1 {
  %8 = tail call zeroext i16 @tvb_get_ntohs(ptr noundef %0, i32 noundef %3)
  %.not = icmp eq i16 %8, 0
  br i1 %.not, label %16, label %9

9:                                                ; preds = %7
  %10 = zext i16 %8 to i32
  %11 = add i32 %3, 2
  %12 = tail call ptr @tvb_new_subset_length(ptr noundef %0, i32 noundef %11, i32 noundef %10)
  %13 = load ptr, ptr @bsslap_rrlp_handle, align 8
  %.not14 = icmp eq ptr %13, null
  br i1 %.not14, label %16, label %14

14:                                               ; preds = %9
  %15 = tail call i32 @call_dissector(ptr noundef nonnull %13, ptr noundef %12, ptr noundef %2, ptr noundef %1)
  br label %16

16:                                               ; preds = %9, %14, %7
  %17 = add i16 %8, 2
  ret i16 %17
}